; Function Attrs: nounwind uwtable
define hidden ptr @_PyTokenizer_translate_into_utf8(ptr noundef %0, ptr noundef %1) local_unnamed_addr #0 {
  %3 = tail call i64 @strlen(ptr noundef nonnull dereferenceable(1) %0) #10
  %4 = tail call ptr @PyUnicode_Decode(ptr noundef nonnull %0, i64 noundef %3, ptr noundef %1, ptr noundef null) #9
  %5 = icmp eq ptr %4, null
  br i1 %5, label %Py_DECREF.exit, label %6

6:                                                ; preds = %2
  %7 = tail call ptr @PyUnicode_AsUTF8String(ptr noundef nonnull %4) #9
  %8 = load i32, ptr %4, align 8, !tbaa !22
  %.not.i = icmp sgt i32 %8, -1
  br i1 %.not.i, label %9, label %Py_DECREF.exit

9:                                                ; preds = %6
  %10 = add nsw i32 %8, -1
  store i32 %10, ptr %4, align 8, !tbaa !22
  %11 = icmp eq i32 %10, 0
  br i1 %11, label %12, label %Py_DECREF.exit

12:                                               ; preds = %9
  tail call void @_Py_Dealloc(ptr noundef nonnull %4) #9
  br label %Py_DECREF.exit

Py_DECREF.exit:                                   ; preds = %12, %9, %6, %2
  %.0 = phi ptr [ null, %2 ], [ %7, %6 ], [ %7, %9 ], [ %7, %12 ]
  ret ptr %.0
}